target datalayout = "e-m:e-p270:32:32-p271:32:32-p272:64:64-i64:64-i128:128-f80:128-n8:16:32:64-S128"
target triple = "x86_64-pc-linux-gnu"

%struct._xmlNs = type { ptr, i32, ptr, ptr, ptr, ptr }
%struct._xmlDoc = type { ptr, i32, ptr, ptr, ptr, ptr, ptr, ptr, ptr, i32, i32, ptr, ptr, ptr, ptr, ptr, ptr, ptr, ptr, i32, ptr, ptr, i32, i32 }

@xmlMalloc = external global ptr, align 8
@.str.27 = private unnamed_addr constant [37 x i8] c"http://www.w3.org/XML/1998/namespace\00", align 1
@.str.28 = private unnamed_addr constant [4 x i8] c"xml\00", align 1

; Function Attrs: nounwind uwtable
define internal void @php_libxml_set_old_ns_list(ptr noundef %0, ptr noundef %1, ptr noundef %2) #0 {
  %4 = alloca ptr, align 8
  %5 = alloca ptr, align 8
  %6 = alloca ptr, align 8
  store ptr %0, ptr %4, align 8
  store ptr %1, ptr %5, align 8
  store ptr %2, ptr %6, align 8
  %7 = load ptr, ptr %4, align 8
  %8 = icmp eq ptr %7, null
  %9 = xor i1 %8, true
  %10 = xor i1 %9, true
  %11 = zext i1 %10 to i32
  %12 = sext i32 %11 to i64
  %13 = icmp ne i64 %12, 0
  br i1 %13, label %14, label %15

14:                                               ; preds = %3
  br label %71

15:                                               ; preds = %3
  %16 = load ptr, ptr %6, align 8
  %17 = getelementptr inbounds %struct._xmlNs, ptr %16, i32 0, i32 0
  %18 = load ptr, ptr %17, align 8
  %19 = icmp eq ptr %18, null
  call void @llvm.assume(i1 %19)
  %20 = load ptr, ptr %4, align 8
  %21 = getelementptr inbounds %struct._xmlDoc, ptr %20, i32 0, i32 13
  %22 = load ptr, ptr %21, align 8
  %23 = icmp eq ptr %22, null
  %24 = xor i1 %23, true
  %25 = xor i1 %24, true
  %26 = zext i1 %25 to i32
  %27 = sext i32 %26 to i64
  %28 = icmp ne i64 %27, 0
  br i1 %28, label %29, label %57

29:                                               ; preds = %15
  %30 = load ptr, ptr @xmlMalloc, align 8
  %31 = call ptr %30(i64 noundef 48)
  %32 = load ptr, ptr %4, align 8
  %33 = getelementptr inbounds %struct._xmlDoc, ptr %32, i32 0, i32 13
  store ptr %31, ptr %33, align 8
  %34 = load ptr, ptr %4, align 8
  %35 = getelementptr inbounds %struct._xmlDoc, ptr %34, i32 0, i32 13
  %36 = load ptr, ptr %35, align 8
  %37 = icmp eq ptr %36, null
  br i1 %37, label %38, label %39

38:                                               ; preds = %29
  br label %71

39:                                               ; preds = %29
  %40 = load ptr, ptr %4, align 8
  %41 = getelementptr inbounds %struct._xmlDoc, ptr %40, i32 0, i32 13
  %42 = load ptr, ptr %41, align 8
  call void @llvm.memset.p0.i64(ptr align 8 %42, i8 0, i64 48, i1 false)
  %43 = load ptr, ptr %4, align 8
  %44 = getelementptr inbounds %struct._xmlDoc, ptr %43, i32 0, i32 13
  %45 = load ptr, ptr %44, align 8
  %46 = getelementptr inbounds %struct._xmlNs, ptr %45, i32 0, i32 1
  store i32 18, ptr %46, align 8
  %47 = call ptr @xmlStrdup(ptr noundef @.str.27)
  %48 = load ptr, ptr %4, align 8
  %49 = getelementptr inbounds %struct._xmlDoc, ptr %48, i32 0, i32 13
  %50 = load ptr, ptr %49, align 8
  %51 = getelementptr inbounds %struct._xmlNs, ptr %50, i32 0, i32 2
  store ptr %47, ptr %51, align 8
  %52 = call ptr @xmlStrdup(ptr noundef @.str.28)
  %53 = load ptr, ptr %4, align 8
  %54 = getelementptr inbounds %struct._xmlDoc, ptr %53, i32 0, i32 13
  %55 = load ptr, ptr %54, align 8
  %56 = getelementptr inbounds %struct._xmlNs, ptr %55, i32 0, i32 3
  store ptr %52, ptr %56, align 8
  br label %65

57:                                               ; preds = %15
  %58 = load ptr, ptr %4, align 8
  %59 = getelementptr inbounds %struct._xmlDoc, ptr %58, i32 0, i32 13
  %60 = load ptr, ptr %59, align 8
  %61 = getelementptr inbounds %struct._xmlNs, ptr %60, i32 0, i32 0
  %62 = load ptr, ptr %61, align 8
  %63 = load ptr, ptr %6, align 8
  %64 = getelementptr inbounds %struct._xmlNs, ptr %63, i32 0, i32 0
  store ptr %62, ptr %64, align 8
  br label %65

65:                                               ; preds = %57, %39
  %66 = load ptr, ptr %5, align 8
  %67 = load ptr, ptr %4, align 8
  %68 = getelementptr inbounds %struct._xmlDoc, ptr %67, i32 0, i32 13
  %69 = load ptr, ptr %68, align 8
  %70 = getelementptr inbounds %struct._xmlNs, ptr %69, i32 0, i32 0
  store ptr %66, ptr %70, align 8
  br label %71

71:                                               ; preds = %65, %38, %14
  ret void
}

; Function Attrs: nounwind uwtable
define void @php_libxml_set_old_ns(ptr noundef %0, ptr noundef %1) #0 {
  %3 = alloca ptr, align 8
  %4 = alloca ptr, align 8
  store ptr %0, ptr %3, align 8
  store ptr %1, ptr %4, align 8
  %5 = load ptr, ptr %3, align 8
  %6 = load ptr, ptr %4, align 8
  %7 = load ptr, ptr %4, align 8
  call void @php_libxml_set_old_ns_list(ptr noundef %5, ptr noundef %6, ptr noundef %7)
  ret void
}