; Function Attrs: nounwind uwtable
define void @php_libxml_set_old_ns(ptr noundef %0, ptr noundef %1) local_unnamed_addr #0 {
  %3 = icmp eq ptr %0, null
  br i1 %3, label %php_libxml_set_old_ns_list.exit, label %4

4:                                                ; preds = %2
  %5 = load ptr, ptr %1, align 8
  %6 = icmp eq ptr %5, null
  tail call void @llvm.assume(i1 %6)
  %7 = getelementptr inbounds i8, ptr %0, i64 96
  %8 = load ptr, ptr %7, align 8
  %9 = icmp eq ptr %8, null
  br i1 %9, label %10, label %23

10:                                               ; preds = %4
  %11 = load ptr, ptr @xmlMalloc, align 8
  %12 = tail call ptr %11(i64 noundef 48) #17
  store ptr %12, ptr %7, align 8
  %13 = icmp eq ptr %12, null
  br i1 %13, label %php_libxml_set_old_ns_list.exit, label %14

14:                                               ; preds = %10
  tail call void @llvm.memset.p0.i64(ptr noundef nonnull align 8 dereferenceable(48) %12, i8 0, i64 48, i1 false)
  %15 = load ptr, ptr %7, align 8
  %16 = getelementptr inbounds i8, ptr %15, i64 8
  store i32 18, ptr %16, align 8
  %17 = tail call ptr @xmlStrdup(ptr noundef nonnull @.str.27) #17
  %18 = load ptr, ptr %7, align 8
  %19 = getelementptr inbounds i8, ptr %18, i64 16
  store ptr %17, ptr %19, align 8
  %20 = tail call ptr @xmlStrdup(ptr noundef nonnull @.str.28) #17
  %21 = load ptr, ptr %7, align 8
  %22 = getelementptr inbounds i8, ptr %21, i64 24
  store ptr %20, ptr %22, align 8
  br label %25

23:                                               ; preds = %4
  %24 = load ptr, ptr %8, align 8
  store ptr %24, ptr %1, align 8
  br label %25

25:                                               ; preds = %23, %14
  %26 = load ptr, ptr %7, align 8
  store ptr %1, ptr %26, align 8
  br label %php_libxml_set_old_ns_list.exit

php_libxml_set_old_ns_list.exit:                  ; preds = %2, %10, %25
  ret void
}